
stresstest.o:     file format elf32-littleriscv

Sections:
Idx Name          Size      VMA       LMA       File off  Algn
  0 .text         00000230  00000000  00000000  00000034  2**2
                  CONTENTS, ALLOC, LOAD, RELOC, READONLY, CODE
  1 .data         00000000  00000000  00000000  00000264  2**0
                  CONTENTS, ALLOC, LOAD, DATA
  2 .bss          00000000  00000000  00000000  00000264  2**0
                  ALLOC
  3 .comment      00000012  00000000  00000000  00000264  2**0
                  CONTENTS, READONLY

Disassembly of section .text:

00000000 <delay_u>:
   0:	ff010113          	addi	sp,sp,-16
   4:	00151793          	slli	a5,a0,0x1
   8:	00a787b3          	add	a5,a5,a0
   c:	00679713          	slli	a4,a5,0x6
  10:	00e787b3          	add	a5,a5,a4
  14:	00279713          	slli	a4,a5,0x2
  18:	00a70733          	add	a4,a4,a0
  1c:	00271793          	slli	a5,a4,0x2
  20:	00a787b3          	add	a5,a5,a0
  24:	00579693          	slli	a3,a5,0x5
  28:	00012623          	sw	zero,12(sp)
  2c:	00000793          	li	a5,0

00000030 <.L2>:
  30:	00d7da63          	ble	a3,a5,44 <.L5>
  34:	00100713          	li	a4,1
  38:	00e12623          	sw	a4,12(sp)
  3c:	00178793          	addi	a5,a5,1
  40:	ff1ff06f          	j	30 <.L2>

00000044 <.L5>:
  44:	01010113          	addi	sp,sp,16
  48:	00008067          	ret

0000004c <SOS>:
  4c:	ff010113          	addi	sp,sp,-16
  50:	00112623          	sw	ra,12(sp)
  54:	00812423          	sw	s0,8(sp)
  58:	00912223          	sw	s1,4(sp)

0000005c <.L7>:
  5c:	00002437          	lui	s0,0x2
  60:	0ff00493          	li	s1,255
  64:	00942023          	sw	s1,0(s0) # 2000 <.L13+0x1dd8>
  68:	00100513          	li	a0,1
  6c:	00000097          	auipc	ra,0x0
  70:	000080e7          	jalr	ra
  74:	00042023          	sw	zero,0(s0)
  78:	00100513          	li	a0,1
  7c:	00000097          	auipc	ra,0x0
  80:	000080e7          	jalr	ra
  84:	00942023          	sw	s1,0(s0)
  88:	00100513          	li	a0,1
  8c:	00000097          	auipc	ra,0x0
  90:	000080e7          	jalr	ra
  94:	00042023          	sw	zero,0(s0)
  98:	00100513          	li	a0,1
  9c:	00000097          	auipc	ra,0x0
  a0:	000080e7          	jalr	ra
  a4:	00942023          	sw	s1,0(s0)
  a8:	00100513          	li	a0,1
  ac:	00000097          	auipc	ra,0x0
  b0:	000080e7          	jalr	ra
  b4:	00042023          	sw	zero,0(s0)
  b8:	00100513          	li	a0,1
  bc:	00000097          	auipc	ra,0x0
  c0:	000080e7          	jalr	ra
  c4:	00942023          	sw	s1,0(s0)
  c8:	00200513          	li	a0,2
  cc:	00000097          	auipc	ra,0x0
  d0:	000080e7          	jalr	ra
  d4:	00042023          	sw	zero,0(s0)
  d8:	00200513          	li	a0,2
  dc:	00000097          	auipc	ra,0x0
  e0:	000080e7          	jalr	ra
  e4:	00942023          	sw	s1,0(s0)
  e8:	00200513          	li	a0,2
  ec:	00000097          	auipc	ra,0x0
  f0:	000080e7          	jalr	ra
  f4:	00042023          	sw	zero,0(s0)
  f8:	00200513          	li	a0,2
  fc:	00000097          	auipc	ra,0x0
 100:	000080e7          	jalr	ra
 104:	00942023          	sw	s1,0(s0)
 108:	00200513          	li	a0,2
 10c:	00000097          	auipc	ra,0x0
 110:	000080e7          	jalr	ra
 114:	00042023          	sw	zero,0(s0)
 118:	00200513          	li	a0,2
 11c:	00000097          	auipc	ra,0x0
 120:	000080e7          	jalr	ra
 124:	00942023          	sw	s1,0(s0)
 128:	00100513          	li	a0,1
 12c:	00000097          	auipc	ra,0x0
 130:	000080e7          	jalr	ra
 134:	00042023          	sw	zero,0(s0)
 138:	00100513          	li	a0,1
 13c:	00000097          	auipc	ra,0x0
 140:	000080e7          	jalr	ra
 144:	00942023          	sw	s1,0(s0)
 148:	00100513          	li	a0,1
 14c:	00000097          	auipc	ra,0x0
 150:	000080e7          	jalr	ra
 154:	00042023          	sw	zero,0(s0)
 158:	00100513          	li	a0,1
 15c:	00000097          	auipc	ra,0x0
 160:	000080e7          	jalr	ra
 164:	00942023          	sw	s1,0(s0)
 168:	00100513          	li	a0,1
 16c:	00000097          	auipc	ra,0x0
 170:	000080e7          	jalr	ra
 174:	00042023          	sw	zero,0(s0)
 178:	00100513          	li	a0,1
 17c:	00000097          	auipc	ra,0x0
 180:	000080e7          	jalr	ra
 184:	00600513          	li	a0,6
 188:	00000097          	auipc	ra,0x0
 18c:	000080e7          	jalr	ra
 190:	ecdff06f          	j	5c <.L7>

00000194 <Success>:
 194:	ff010113          	addi	sp,sp,-16
 198:	00112623          	sw	ra,12(sp)
 19c:	00812423          	sw	s0,8(sp)

000001a0 <.L10>:
 1a0:	00002437          	lui	s0,0x2
 1a4:	0ff00793          	li	a5,255
 1a8:	00f42023          	sw	a5,0(s0) # 2000 <.L13+0x1dd8>
 1ac:	00100513          	li	a0,1
 1b0:	00000097          	auipc	ra,0x0
 1b4:	000080e7          	jalr	ra
 1b8:	00042023          	sw	zero,0(s0)
 1bc:	00900513          	li	a0,9
 1c0:	00000097          	auipc	ra,0x0
 1c4:	000080e7          	jalr	ra
 1c8:	fd9ff06f          	j	1a0 <.L10>

000001cc <main>:
 1cc:	fe010113          	addi	sp,sp,-32
 1d0:	00112e23          	sw	ra,28(sp)
 1d4:	06400793          	li	a5,100
 1d8:	00f12623          	sw	a5,12(sp)
 1dc:	05a00793          	li	a5,90
 1e0:	00f12423          	sw	a5,8(sp)
 1e4:	05000793          	li	a5,80
 1e8:	00f12223          	sw	a5,4(sp)
 1ec:	00500793          	li	a5,5
 1f0:	00f12623          	sw	a5,12(sp)
 1f4:	00812703          	lw	a4,8(sp)
 1f8:	00c12783          	lw	a5,12(sp)
 1fc:	00e787b3          	add	a5,a5,a4
 200:	00f12623          	sw	a5,12(sp)
 204:	00c12783          	lw	a5,12(sp)
 208:	00412703          	lw	a4,4(sp)
 20c:	40e787b3          	sub	a5,a5,a4
 210:	00f12423          	sw	a5,8(sp)
 214:	00812703          	lw	a4,8(sp)
 218:	00f00793          	li	a5,15
 21c:	00f70663          	beq	a4,a5,228 <.L13>
 220:	00000097          	auipc	ra,0x0
 224:	000080e7          	jalr	ra

00000228 <.L13>:
 228:	00000097          	auipc	ra,0x0
 22c:	000080e7          	jalr	ra
